target datalayout = "e-m:e-p270:32:32-p271:32:32-p272:64:64-i64:64-i128:128-f80:128-n8:16:32:64-S128"
target triple = "x86_64-pc-linux-gnu"

%struct.SnapshotData = type { i32, i32, i32, ptr, i32, ptr, i32, i8, i8, i8, i32, i32, ptr, i32, i32, %struct.pairingheap_node, i64 }
%struct.pairingheap_node = type { ptr, ptr, ptr }
%struct.BTLeader = type { ptr, i32, ptr, ptr, ptr, ptr, ptr, ptr }
%struct.ParallelContext = type { %struct.dlist_node, i32, i32, i32, i32, ptr, ptr, ptr, %struct.shm_toc_estimator, ptr, ptr, ptr, ptr, i32, ptr }
%struct.dlist_node = type { ptr, ptr }
%struct.shm_toc_estimator = type { i64, i64 }
%struct.BufferUsage = type { i64, i64, i64, i64, i64, i64, i64, i64, i64, i64, %struct.instr_time, %struct.instr_time, %struct.instr_time, %struct.instr_time, %struct.instr_time, %struct.instr_time }
%struct.instr_time = type { i64 }
%struct.WalUsage = type { i64, i64, i64, i64 }

; Function Attrs: nounwind uwtable
define internal void @_bt_end_parallel(ptr noundef %0) #0 {
  %2 = alloca ptr, align 8
  %3 = alloca i32, align 4
  store ptr %0, ptr %2, align 8
  call void @llvm.lifetime.start.p0(i64 4, ptr %3) #8
  %4 = load ptr, ptr %2, align 8
  %5 = getelementptr inbounds nuw %struct.BTLeader, ptr %4, i32 0, i32 0
  %6 = load ptr, ptr %5, align 8
  call void @WaitForParallelWorkersToFinish(ptr noundef %6)
  store i32 0, ptr %3, align 4
  br label %7

7:                                                ; preds = %28, %1
  %8 = load i32, ptr %3, align 4
  %9 = load ptr, ptr %2, align 8
  %10 = getelementptr inbounds nuw %struct.BTLeader, ptr %9, i32 0, i32 0
  %11 = load ptr, ptr %10, align 8
  %12 = getelementptr inbounds nuw %struct.ParallelContext, ptr %11, i32 0, i32 4
  %13 = load i32, ptr %12, align 4
  %14 = icmp slt i32 %8, %13
  br i1 %14, label %15, label %31

15:                                               ; preds = %7
  %16 = load ptr, ptr %2, align 8
  %17 = getelementptr inbounds nuw %struct.BTLeader, ptr %16, i32 0, i32 7
  %18 = load ptr, ptr %17, align 8
  %19 = load i32, ptr %3, align 4
  %20 = sext i32 %19 to i64
  %21 = getelementptr inbounds %struct.BufferUsage, ptr %18, i64 %20
  %22 = load ptr, ptr %2, align 8
  %23 = getelementptr inbounds nuw %struct.BTLeader, ptr %22, i32 0, i32 6
  %24 = load ptr, ptr %23, align 8
  %25 = load i32, ptr %3, align 4
  %26 = sext i32 %25 to i64
  %27 = getelementptr inbounds %struct.WalUsage, ptr %24, i64 %26
  call void @InstrAccumParallelQuery(ptr noundef %21, ptr noundef %27)
  br label %28

28:                                               ; preds = %15
  %29 = load i32, ptr %3, align 4
  %30 = add i32 %29, 1
  store i32 %30, ptr %3, align 4
  br label %7, !llvm.loop !6

31:                                               ; preds = %7
  %32 = load ptr, ptr %2, align 8
  %33 = getelementptr inbounds nuw %struct.BTLeader, ptr %32, i32 0, i32 5
  %34 = load ptr, ptr %33, align 8
  %35 = getelementptr inbounds nuw %struct.SnapshotData, ptr %34, i32 0, i32 0
  %36 = load i32, ptr %35, align 8
  %37 = icmp eq i32 %36, 0
  br i1 %37, label %45, label %38

38:                                               ; preds = %31
  %39 = load ptr, ptr %2, align 8
  %40 = getelementptr inbounds nuw %struct.BTLeader, ptr %39, i32 0, i32 5
  %41 = load ptr, ptr %40, align 8
  %42 = getelementptr inbounds nuw %struct.SnapshotData, ptr %41, i32 0, i32 0
  %43 = load i32, ptr %42, align 8
  %44 = icmp eq i32 %43, 5
  br i1 %44, label %45, label %49

45:                                               ; preds = %38, %31
  %46 = load ptr, ptr %2, align 8
  %47 = getelementptr inbounds nuw %struct.BTLeader, ptr %46, i32 0, i32 5
  %48 = load ptr, ptr %47, align 8
  call void @UnregisterSnapshot(ptr noundef %48)
  br label %49

49:                                               ; preds = %45, %38
  %50 = load ptr, ptr %2, align 8
  %51 = getelementptr inbounds nuw %struct.BTLeader, ptr %50, i32 0, i32 0
  %52 = load ptr, ptr %51, align 8
  call void @DestroyParallelContext(ptr noundef %52)
  call void @ExitParallelMode()
  call void @llvm.lifetime.end.p0(i64 4, ptr %3) #8
  ret void
}