; Function Attrs: nounwind uwtable
define internal fastcc void @_bt_end_parallel(ptr noundef readonly captures(none) %0) unnamed_addr #0 {
  %2 = load ptr, ptr %0, align 8
  tail call void @WaitForParallelWorkersToFinish(ptr noundef %2) #10
  %3 = load ptr, ptr %0, align 8
  %4 = getelementptr inbounds nuw i8, ptr %3, i64 28
  %5 = load i32, ptr %4, align 4
  %6 = icmp sgt i32 %5, 0
  br i1 %6, label %.lr.ph, label %._crit_edge

.lr.ph:                                           ; preds = %1
  %7 = getelementptr inbounds nuw i8, ptr %0, i64 56
  %8 = getelementptr inbounds nuw i8, ptr %0, i64 48
  br label %9

9:                                                ; preds = %.lr.ph, %9
  %indvars.iv = phi i64 [ 0, %.lr.ph ], [ %indvars.iv.next, %9 ]
  %10 = load ptr, ptr %7, align 8
  %11 = getelementptr inbounds nuw %struct.BufferUsage, ptr %10, i64 %indvars.iv
  %12 = load ptr, ptr %8, align 8
  %13 = getelementptr inbounds nuw %struct.WalUsage, ptr %12, i64 %indvars.iv
  tail call void @InstrAccumParallelQuery(ptr noundef %11, ptr noundef %13) #10
  %indvars.iv.next = add nuw nsw i64 %indvars.iv, 1
  %14 = load ptr, ptr %0, align 8
  %15 = getelementptr inbounds nuw i8, ptr %14, i64 28
  %16 = load i32, ptr %15, align 4
  %17 = sext i32 %16 to i64
  %18 = icmp slt i64 %indvars.iv.next, %17
  br i1 %18, label %9, label %._crit_edge, !llvm.loop !16

._crit_edge:                                      ; preds = %9, %1
  %19 = phi ptr [ %3, %1 ], [ %14, %9 ]
  %20 = getelementptr inbounds nuw i8, ptr %0, i64 40
  %21 = load ptr, ptr %20, align 8
  %22 = load i32, ptr %21, align 8
  switch i32 %22, label %24 [
    i32 0, label %23
    i32 5, label %23
  ]

23:                                               ; preds = %._crit_edge, %._crit_edge
  tail call void @UnregisterSnapshot(ptr noundef nonnull %21) #10
  %.pre = load ptr, ptr %0, align 8
  br label %24

24:                                               ; preds = %._crit_edge, %23
  %25 = phi ptr [ %19, %._crit_edge ], [ %.pre, %23 ]
  tail call void @DestroyParallelContext(ptr noundef %25) #10
  tail call void @ExitParallelMode() #10
  ret void
}